target datalayout = "e-m:e-p270:32:32-p271:32:32-p272:64:64-i64:64-i128:128-f80:128-n8:16:32:64-S128"
target triple = "x86_64-pc-linux-gnu"

%"class.cv::Subdiv2D" = type { %"class.std::vector", %"class.std::vector.0", i32, i32, i8, i32, %"class.cv::Point_", %"class.cv::Point_" }
%"class.std::vector" = type { %"struct.std::_Vector_base" }
%"struct.std::_Vector_base" = type { %"struct.std::_Vector_base<cv::Subdiv2D::Vertex, std::allocator<cv::Subdiv2D::Vertex>>::_Vector_impl" }
%"struct.std::_Vector_base<cv::Subdiv2D::Vertex, std::allocator<cv::Subdiv2D::Vertex>>::_Vector_impl" = type { %"struct.std::_Vector_base<cv::Subdiv2D::Vertex, std::allocator<cv::Subdiv2D::Vertex>>::_Vector_impl_data" }
%"struct.std::_Vector_base<cv::Subdiv2D::Vertex, std::allocator<cv::Subdiv2D::Vertex>>::_Vector_impl_data" = type { ptr, ptr, ptr }
%"class.std::vector.0" = type { %"struct.std::_Vector_base.1" }
%"struct.std::_Vector_base.1" = type { %"struct.std::_Vector_base<cv::Subdiv2D::QuadEdge, std::allocator<cv::Subdiv2D::QuadEdge>>::_Vector_impl" }
%"struct.std::_Vector_base<cv::Subdiv2D::QuadEdge, std::allocator<cv::Subdiv2D::QuadEdge>>::_Vector_impl" = type { %"struct.std::_Vector_base<cv::Subdiv2D::QuadEdge, std::allocator<cv::Subdiv2D::QuadEdge>>::_Vector_impl_data" }
%"struct.std::_Vector_base<cv::Subdiv2D::QuadEdge, std::allocator<cv::Subdiv2D::QuadEdge>>::_Vector_impl_data" = type { ptr, ptr, ptr }
%"class.cv::Point_" = type { float, float }
%"struct.cv::Subdiv2D::QuadEdge" = type { [4 x i32], [4 x i32] }
%"struct.cv::Subdiv2D::Vertex" = type { i32, i32, %"class.cv::Point_" }

; Function Attrs: mustprogress nounwind uwtable
define linkonce_odr hidden noundef nonnull align 4 dereferenceable(16) ptr @_ZNSt6vectorIN2cv8Subdiv2D6VertexESaIS2_EEixEm(ptr noundef nonnull align 8 dereferenceable(24) %0, i64 noundef %1) #0 comdat align 2 {
  %3 = alloca ptr, align 8
  %4 = alloca i64, align 8
  store ptr %0, ptr %3, align 8, !tbaa !22
  store i64 %1, ptr %4, align 8, !tbaa !12
  %5 = load ptr, ptr %3, align 8
  %6 = getelementptr inbounds nuw %"struct.std::_Vector_base", ptr %5, i32 0, i32 0
  %7 = getelementptr inbounds nuw %"struct.std::_Vector_base<cv::Subdiv2D::Vertex, std::allocator<cv::Subdiv2D::Vertex>>::_Vector_impl_data", ptr %6, i32 0, i32 0
  %8 = load ptr, ptr %7, align 8, !tbaa !24
  %9 = load i64, ptr %4, align 8, !tbaa !12
  %10 = getelementptr inbounds nuw %"struct.cv::Subdiv2D::Vertex", ptr %8, i64 %9
  ret ptr %10
}

; Function Attrs: mustprogress nounwind uwtable
define linkonce_odr hidden noundef nonnull align 4 dereferenceable(32) ptr @_ZNSt6vectorIN2cv8Subdiv2D8QuadEdgeESaIS2_EEixEm(ptr noundef nonnull align 8 dereferenceable(24) %0, i64 noundef %1) #0 comdat align 2 {
  %3 = alloca ptr, align 8
  %4 = alloca i64, align 8
  store ptr %0, ptr %3, align 8, !tbaa !10
  store i64 %1, ptr %4, align 8, !tbaa !12
  %5 = load ptr, ptr %3, align 8
  %6 = getelementptr inbounds nuw %"struct.std::_Vector_base.1", ptr %5, i32 0, i32 0
  %7 = getelementptr inbounds nuw %"struct.std::_Vector_base<cv::Subdiv2D::QuadEdge, std::allocator<cv::Subdiv2D::QuadEdge>>::_Vector_impl_data", ptr %6, i32 0, i32 0
  %8 = load ptr, ptr %7, align 8, !tbaa !14
  %9 = load i64, ptr %4, align 8, !tbaa !12
  %10 = getelementptr inbounds nuw %"struct.cv::Subdiv2D::QuadEdge", ptr %8, i64 %9
  ret ptr %10
}

; Function Attrs: mustprogress nounwind uwtable
define void @_ZN2cv8Subdiv2D13setEdgePointsEiii(ptr noundef nonnull align 8 dereferenceable(80) %0, i32 noundef %1, i32 noundef %2, i32 noundef %3) #0 align 2 {
  %5 = alloca ptr, align 8
  %6 = alloca i32, align 4
  %7 = alloca i32, align 4
  %8 = alloca i32, align 4
  store ptr %0, ptr %5, align 8, !tbaa !3
  store i32 %1, ptr %6, align 4, !tbaa !8
  store i32 %2, ptr %7, align 4, !tbaa !8
  store i32 %3, ptr %8, align 4, !tbaa !8
  %9 = load ptr, ptr %5, align 8
  %10 = load i32, ptr %7, align 4, !tbaa !8
  %11 = getelementptr inbounds nuw %"class.cv::Subdiv2D", ptr %9, i32 0, i32 1
  %12 = load i32, ptr %6, align 4, !tbaa !8
  %13 = ashr i32 %12, 2
  %14 = sext i32 %13 to i64
  %15 = call noundef nonnull align 4 dereferenceable(32) ptr @_ZNSt6vectorIN2cv8Subdiv2D8QuadEdgeESaIS2_EEixEm(ptr noundef nonnull align 8 dereferenceable(24) %11, i64 noundef %14) #20
  %16 = getelementptr inbounds nuw %"struct.cv::Subdiv2D::QuadEdge", ptr %15, i32 0, i32 1
  %17 = load i32, ptr %6, align 4, !tbaa !8
  %18 = and i32 %17, 3
  %19 = sext i32 %18 to i64
  %20 = getelementptr inbounds [4 x i32], ptr %16, i64 0, i64 %19
  store i32 %10, ptr %20, align 4, !tbaa !8
  %21 = load i32, ptr %8, align 4, !tbaa !8
  %22 = getelementptr inbounds nuw %"class.cv::Subdiv2D", ptr %9, i32 0, i32 1
  %23 = load i32, ptr %6, align 4, !tbaa !8
  %24 = ashr i32 %23, 2
  %25 = sext i32 %24 to i64
  %26 = call noundef nonnull align 4 dereferenceable(32) ptr @_ZNSt6vectorIN2cv8Subdiv2D8QuadEdgeESaIS2_EEixEm(ptr noundef nonnull align 8 dereferenceable(24) %22, i64 noundef %25) #20
  %27 = getelementptr inbounds nuw %"struct.cv::Subdiv2D::QuadEdge", ptr %26, i32 0, i32 1
  %28 = load i32, ptr %6, align 4, !tbaa !8
  %29 = add nsw i32 %28, 2
  %30 = and i32 %29, 3
  %31 = sext i32 %30 to i64
  %32 = getelementptr inbounds [4 x i32], ptr %27, i64 0, i64 %31
  store i32 %21, ptr %32, align 4, !tbaa !8
  %33 = load i32, ptr %6, align 4, !tbaa !8
  %34 = getelementptr inbounds nuw %"class.cv::Subdiv2D", ptr %9, i32 0, i32 0
  %35 = load i32, ptr %7, align 4, !tbaa !8
  %36 = sext i32 %35 to i64
  %37 = call noundef nonnull align 4 dereferenceable(16) ptr @_ZNSt6vectorIN2cv8Subdiv2D6VertexESaIS2_EEixEm(ptr noundef nonnull align 8 dereferenceable(24) %34, i64 noundef %36) #20
  %38 = getelementptr inbounds nuw %"struct.cv::Subdiv2D::Vertex", ptr %37, i32 0, i32 0
  store i32 %33, ptr %38, align 4, !tbaa !29
  %39 = load i32, ptr %6, align 4, !tbaa !8
  %40 = xor i32 %39, 2
  %41 = getelementptr inbounds nuw %"class.cv::Subdiv2D", ptr %9, i32 0, i32 0
  %42 = load i32, ptr %8, align 4, !tbaa !8
  %43 = sext i32 %42 to i64
  %44 = call noundef nonnull align 4 dereferenceable(16) ptr @_ZNSt6vectorIN2cv8Subdiv2D6VertexESaIS2_EEixEm(ptr noundef nonnull align 8 dereferenceable(24) %41, i64 noundef %43) #20
  %45 = getelementptr inbounds nuw %"struct.cv::Subdiv2D::Vertex", ptr %44, i32 0, i32 0
  store i32 %40, ptr %45, align 4, !tbaa !29
  ret void
}