; Function Attrs: mustprogress nofree norecurse nosync nounwind willreturn memory(write, argmem: readwrite, inaccessiblemem: none) uwtable
define void @_ZN2cv8Subdiv2D13setEdgePointsEiii(ptr noundef nonnull readonly align 8 captures(none) dereferenceable(80) %0, i32 noundef %1, i32 noundef %2, i32 noundef %3) local_unnamed_addr #12 align 2 {
  %5 = getelementptr inbounds nuw i8, ptr %0, i64 24
  %6 = ashr i32 %1, 2
  %7 = sext i32 %6 to i64
  %8 = load ptr, ptr %5, align 8, !tbaa !3
  %9 = and i32 %1, 3
  %10 = zext nneg i32 %9 to i64
  %11 = getelementptr inbounds nuw %"struct.cv::Subdiv2D::QuadEdge", ptr %8, i64 %7, i32 1, i64 %10
  store i32 %2, ptr %11, align 4, !tbaa !9
  %12 = xor i32 %9, 2
  %13 = zext nneg i32 %12 to i64
  %14 = getelementptr inbounds nuw %"struct.cv::Subdiv2D::QuadEdge", ptr %8, i64 %7, i32 1, i64 %13
  store i32 %3, ptr %14, align 4, !tbaa !9
  %15 = sext i32 %2 to i64
  %16 = load ptr, ptr %0, align 8, !tbaa !11
  %17 = getelementptr inbounds nuw %"struct.cv::Subdiv2D::Vertex", ptr %16, i64 %15
  store i32 %1, ptr %17, align 4, !tbaa !14
  %18 = xor i32 %1, 2
  %19 = sext i32 %3 to i64
  %20 = getelementptr inbounds nuw %"struct.cv::Subdiv2D::Vertex", ptr %16, i64 %19
  store i32 %18, ptr %20, align 4, !tbaa !14
  ret void
}